target datalayout = "e-m:e-p270:32:32-p271:32:32-p272:64:64-i64:64-i128:128-f80:128-n8:16:32:64-S128"
target triple = "x86_64-pc-linux-gnu"

%struct.DSA_PKEY_CTX = type { i32, i32, ptr, [2 x i32], ptr }
%struct.evp_pkey_ctx_st = type { i32, ptr, ptr, ptr, ptr, %union.anon, %struct.anon.4, ptr, ptr, ptr, i32, i32, ptr, ptr, ptr, ptr, ptr, i8, ptr }
%union.anon = type { %struct.anon.0 }
%struct.anon.0 = type { ptr, ptr }
%struct.anon.4 = type { ptr, ptr, i64, i8 }

; Function Attrs: nounwind uwtable
define internal i32 @pkey_dsa_sign(ptr noundef %0, ptr noundef %1, ptr noundef %2, ptr noundef %3, i64 noundef %4) #0 {
  %6 = alloca i32, align 4
  %7 = alloca ptr, align 8
  %8 = alloca ptr, align 8
  %9 = alloca ptr, align 8
  %10 = alloca ptr, align 8
  %11 = alloca i64, align 8
  %12 = alloca i32, align 4
  %13 = alloca i32, align 4
  %14 = alloca i32, align 4
  %15 = alloca ptr, align 8
  %16 = alloca ptr, align 8
  %17 = alloca i32, align 4
  store ptr %0, ptr %7, align 8, !tbaa !3
  store ptr %1, ptr %8, align 8, !tbaa !38
  store ptr %2, ptr %9, align 8, !tbaa !39
  store ptr %3, ptr %10, align 8, !tbaa !38
  store i64 %4, ptr %11, align 8, !tbaa !41
  call void @llvm.lifetime.start.p0(i64 4, ptr %12) #6
  call void @llvm.lifetime.start.p0(i64 4, ptr %13) #6
  call void @llvm.lifetime.start.p0(i64 4, ptr %14) #6
  call void @llvm.lifetime.start.p0(i64 8, ptr %15) #6
  %18 = load ptr, ptr %7, align 8, !tbaa !3
  %19 = getelementptr inbounds nuw %struct.evp_pkey_ctx_st, ptr %18, i32 0, i32 16
  %20 = load ptr, ptr %19, align 8, !tbaa !16
  store ptr %20, ptr %15, align 8, !tbaa !8
  call void @llvm.lifetime.start.p0(i64 8, ptr %16) #6
  %21 = load ptr, ptr %7, align 8, !tbaa !3
  %22 = getelementptr inbounds nuw %struct.evp_pkey_ctx_st, ptr %21, i32 0, i32 14
  %23 = load ptr, ptr %22, align 8, !tbaa !37
  %24 = call ptr @EVP_PKEY_get0_DSA(ptr noundef %23)
  store ptr %24, ptr %16, align 8, !tbaa !31
  %25 = load ptr, ptr %15, align 8, !tbaa !8
  %26 = getelementptr inbounds nuw %struct.DSA_PKEY_CTX, ptr %25, i32 0, i32 4
  %27 = load ptr, ptr %26, align 8, !tbaa !15
  %28 = icmp ne ptr %27, null
  br i1 %28, label %29, label %44

29:                                               ; preds = %5
  %30 = load ptr, ptr %15, align 8, !tbaa !8
  %31 = getelementptr inbounds nuw %struct.DSA_PKEY_CTX, ptr %30, i32 0, i32 4
  %32 = load ptr, ptr %31, align 8, !tbaa !15
  %33 = call i32 @EVP_MD_get_size(ptr noundef %32)
  store i32 %33, ptr %13, align 4, !tbaa !36
  %34 = load i32, ptr %13, align 4, !tbaa !36
  %35 = icmp sle i32 %34, 0
  br i1 %35, label %36, label %37

36:                                               ; preds = %29
  store i32 0, ptr %6, align 4
  store i32 1, ptr %17, align 4
  br label %59

37:                                               ; preds = %29
  %38 = load i64, ptr %11, align 8, !tbaa !41
  %39 = load i32, ptr %13, align 4, !tbaa !36
  %40 = sext i32 %39 to i64
  %41 = icmp ne i64 %38, %40
  br i1 %41, label %42, label %43

42:                                               ; preds = %37
  store i32 0, ptr %6, align 4
  store i32 1, ptr %17, align 4
  br label %59

43:                                               ; preds = %37
  br label %44

44:                                               ; preds = %43, %5
  %45 = load ptr, ptr %10, align 8, !tbaa !38
  %46 = load i64, ptr %11, align 8, !tbaa !41
  %47 = trunc i64 %46 to i32
  %48 = load ptr, ptr %8, align 8, !tbaa !38
  %49 = load ptr, ptr %16, align 8, !tbaa !31
  %50 = call i32 @DSA_sign(i32 noundef 0, ptr noundef %45, i32 noundef %47, ptr noundef %48, ptr noundef %14, ptr noundef %49)
  store i32 %50, ptr %12, align 4, !tbaa !36
  %51 = load i32, ptr %12, align 4, !tbaa !36
  %52 = icmp sle i32 %51, 0
  br i1 %52, label %53, label %55

53:                                               ; preds = %44
  %54 = load i32, ptr %12, align 4, !tbaa !36
  store i32 %54, ptr %6, align 4
  store i32 1, ptr %17, align 4
  br label %59

55:                                               ; preds = %44
  %56 = load i32, ptr %14, align 4, !tbaa !36
  %57 = zext i32 %56 to i64
  %58 = load ptr, ptr %9, align 8, !tbaa !39
  store i64 %57, ptr %58, align 8, !tbaa !41
  store i32 1, ptr %6, align 4
  store i32 1, ptr %17, align 4
  br label %59

59:                                               ; preds = %55, %53, %42, %36
  call void @llvm.lifetime.end.p0(i64 8, ptr %16) #6
  call void @llvm.lifetime.end.p0(i64 8, ptr %15) #6
  call void @llvm.lifetime.end.p0(i64 4, ptr %14) #6
  call void @llvm.lifetime.end.p0(i64 4, ptr %13) #6
  call void @llvm.lifetime.end.p0(i64 4, ptr %12) #6
  %60 = load i32, ptr %6, align 4
  ret i32 %60
}