; Function Attrs: nounwind uwtable
define internal range(i32 -2147483648, 2) i32 @pkey_dsa_sign(ptr noundef readonly captures(none) %0, ptr noundef %1, ptr noundef writeonly captures(none) %2, ptr noundef %3, i64 noundef %4) #1 {
  %6 = alloca i32, align 4
  call void @llvm.lifetime.start.p0(i64 4, ptr nonnull %6) #7
  %7 = getelementptr inbounds nuw i8, ptr %0, i64 152
  %8 = load ptr, ptr %7, align 8, !tbaa !13
  %9 = getelementptr inbounds nuw i8, ptr %0, i64 136
  %10 = load ptr, ptr %9, align 8, !tbaa !28
  %11 = tail call ptr @EVP_PKEY_get0_DSA(ptr noundef %10) #7
  %12 = getelementptr inbounds nuw i8, ptr %8, i64 24
  %13 = load ptr, ptr %12, align 8, !tbaa !12
  %.not = icmp eq ptr %13, null
  br i1 %.not, label %18, label %14

14:                                               ; preds = %5
  %15 = tail call i32 @EVP_MD_get_size(ptr noundef nonnull %13) #7
  %16 = icmp sgt i32 %15, 0
  %17 = zext nneg i32 %15 to i64
  %.not17 = icmp eq i64 %4, %17
  %or.cond = select i1 %16, i1 %.not17, i1 false
  br i1 %or.cond, label %18, label %25

18:                                               ; preds = %14, %5
  %19 = trunc i64 %4 to i32
  %20 = call i32 @DSA_sign(i32 noundef 0, ptr noundef %3, i32 noundef %19, ptr noundef %1, ptr noundef nonnull %6, ptr noundef %11) #7
  %21 = icmp slt i32 %20, 1
  br i1 %21, label %25, label %22

22:                                               ; preds = %18
  %23 = load i32, ptr %6, align 4, !tbaa !29
  %24 = zext i32 %23 to i64
  store i64 %24, ptr %2, align 8, !tbaa !30
  br label %25

25:                                               ; preds = %18, %14, %22
  %.0 = phi i32 [ 1, %22 ], [ 0, %14 ], [ %20, %18 ]
  call void @llvm.lifetime.end.p0(i64 4, ptr nonnull %6) #7
  ret i32 %.0
}